target datalayout = "e-m:e-p270:32:32-p271:32:32-p272:64:64-i64:64-i128:128-f80:128-n8:16:32:64-S128"
target triple = "x86_64-pc-linux-gnu"

%struct.lua_State = type { %struct.GCRef, i8, i8, i8, i8, %struct.MRef, %struct.GCRef, ptr, ptr, %struct.MRef, %struct.MRef, %struct.GCRef, %struct.GCRef, ptr, i32 }
%struct.MRef = type { i64 }
%struct.GCRef = type { i64 }
%union.TValue = type { i64 }
%struct.global_State = type { ptr, ptr, %struct.GCState, %struct.GCstr, i8, i8, i8, i8, %struct.StrInternState, i32, %struct.GCRef, %struct.SBuf, %union.TValue, %union.TValue, %struct.Node, %union.TValue, %struct.GCupval, i32, i32, ptr, ptr, ptr, i32, i32, %struct.GCRef, %struct.MRef, %struct.MRef, %struct.PRNGState, [39 x %struct.GCRef] }
%struct.GCState = type { i64, i64, i8, i8, i8, i8, i32, %struct.GCRef, %struct.MRef, %struct.GCRef, %struct.GCRef, %struct.GCRef, %struct.GCRef, i64, i64, i32, i32, %struct.MRef }
%struct.GCstr = type { %struct.GCRef, i8, i8, i8, i8, i32, i32, i32 }
%struct.StrInternState = type { ptr, i32, i32, i32, i8, i8, i8, i8, i64 }
%struct.SBuf = type { ptr, ptr, ptr, %struct.MRef }
%struct.Node = type { %union.TValue, %union.TValue, %struct.MRef }
%struct.GCupval = type { %struct.GCRef, i8, i8, i8, i8, %union.anon, %struct.MRef, i32 }
%union.anon = type { %struct.anon.1 }
%struct.anon.1 = type { %struct.GCRef, %struct.GCRef }
%struct.PRNGState = type { [4 x i64] }

; Function Attrs: nounwind uwtable
define dso_local i32 @lua_gc(ptr noundef %0, i32 noundef %1, i32 noundef %2) #0 {
  %4 = alloca ptr, align 8
  %5 = alloca i32, align 4
  %6 = alloca i32, align 4
  %7 = alloca ptr, align 8
  %8 = alloca i32, align 4
  %9 = alloca i64, align 8
  store ptr %0, ptr %4, align 8, !tbaa !4
  store i32 %1, ptr %5, align 4, !tbaa !16
  store i32 %2, ptr %6, align 4, !tbaa !16
  call void @llvm.lifetime.start.p0(i64 8, ptr %7) #9
  %10 = load ptr, ptr %4, align 8, !tbaa !4
  %11 = getelementptr inbounds nuw %struct.lua_State, ptr %10, i32 0, i32 5
  %12 = getelementptr inbounds nuw %struct.MRef, ptr %11, i32 0, i32 0
  %13 = load i64, ptr %12, align 8, !tbaa !29
  %14 = inttoptr i64 %13 to ptr
  store ptr %14, ptr %7, align 8, !tbaa !58
  call void @llvm.lifetime.start.p0(i64 4, ptr %8) #9
  store i32 0, ptr %8, align 4, !tbaa !16
  %15 = load i32, ptr %5, align 4, !tbaa !16
  switch i32 %15, label %126 [
    i32 0, label %16
    i32 1, label %20
    i32 2, label %45
    i32 3, label %47
    i32 4, label %54
    i32 5, label %61
    i32 6, label %101
    i32 7, label %110
    i32 9, label %119
  ]

16:                                               ; preds = %3
  %17 = load ptr, ptr %7, align 8, !tbaa !58
  %18 = getelementptr inbounds nuw %struct.global_State, ptr %17, i32 0, i32 2
  %19 = getelementptr inbounds nuw %struct.GCState, ptr %18, i32 0, i32 1
  store i64 140737488355328, ptr %19, align 8, !tbaa !53
  br label %127

20:                                               ; preds = %3
  %21 = load i32, ptr %6, align 4, !tbaa !16
  %22 = icmp eq i32 %21, -1
  br i1 %22, label %23, label %35

23:                                               ; preds = %20
  %24 = load ptr, ptr %7, align 8, !tbaa !58
  %25 = getelementptr inbounds nuw %struct.global_State, ptr %24, i32 0, i32 2
  %26 = getelementptr inbounds nuw %struct.GCState, ptr %25, i32 0, i32 0
  %27 = load i64, ptr %26, align 8, !tbaa !43
  %28 = udiv i64 %27, 100
  %29 = load ptr, ptr %7, align 8, !tbaa !58
  %30 = getelementptr inbounds nuw %struct.global_State, ptr %29, i32 0, i32 2
  %31 = getelementptr inbounds nuw %struct.GCState, ptr %30, i32 0, i32 16
  %32 = load i32, ptr %31, align 4, !tbaa !87
  %33 = zext i32 %32 to i64
  %34 = mul i64 %28, %33
  br label %40

35:                                               ; preds = %20
  %36 = load ptr, ptr %7, align 8, !tbaa !58
  %37 = getelementptr inbounds nuw %struct.global_State, ptr %36, i32 0, i32 2
  %38 = getelementptr inbounds nuw %struct.GCState, ptr %37, i32 0, i32 0
  %39 = load i64, ptr %38, align 8, !tbaa !43
  br label %40

40:                                               ; preds = %35, %23
  %41 = phi i64 [ %34, %23 ], [ %39, %35 ]
  %42 = load ptr, ptr %7, align 8, !tbaa !58
  %43 = getelementptr inbounds nuw %struct.global_State, ptr %42, i32 0, i32 2
  %44 = getelementptr inbounds nuw %struct.GCState, ptr %43, i32 0, i32 1
  store i64 %41, ptr %44, align 8, !tbaa !53
  br label %127

45:                                               ; preds = %3
  %46 = load ptr, ptr %4, align 8, !tbaa !4
  call void @lj_gc_fullgc(ptr noundef %46)
  br label %127

47:                                               ; preds = %3
  %48 = load ptr, ptr %7, align 8, !tbaa !58
  %49 = getelementptr inbounds nuw %struct.global_State, ptr %48, i32 0, i32 2
  %50 = getelementptr inbounds nuw %struct.GCState, ptr %49, i32 0, i32 0
  %51 = load i64, ptr %50, align 8, !tbaa !43
  %52 = lshr i64 %51, 10
  %53 = trunc i64 %52 to i32
  store i32 %53, ptr %8, align 4, !tbaa !16
  br label %127

54:                                               ; preds = %3
  %55 = load ptr, ptr %7, align 8, !tbaa !58
  %56 = getelementptr inbounds nuw %struct.global_State, ptr %55, i32 0, i32 2
  %57 = getelementptr inbounds nuw %struct.GCState, ptr %56, i32 0, i32 0
  %58 = load i64, ptr %57, align 8, !tbaa !43
  %59 = and i64 %58, 1023
  %60 = trunc i64 %59 to i32
  store i32 %60, ptr %8, align 4, !tbaa !16
  br label %127

61:                                               ; preds = %3
  call void @llvm.lifetime.start.p0(i64 8, ptr %9) #9
  %62 = load i32, ptr %6, align 4, !tbaa !16
  %63 = sext i32 %62 to i64
  %64 = shl i64 %63, 10
  store i64 %64, ptr %9, align 8, !tbaa !38
  %65 = load i64, ptr %9, align 8, !tbaa !38
  %66 = load ptr, ptr %7, align 8, !tbaa !58
  %67 = getelementptr inbounds nuw %struct.global_State, ptr %66, i32 0, i32 2
  %68 = getelementptr inbounds nuw %struct.GCState, ptr %67, i32 0, i32 0
  %69 = load i64, ptr %68, align 8, !tbaa !43
  %70 = icmp ule i64 %65, %69
  br i1 %70, label %71, label %78

71:                                               ; preds = %61
  %72 = load ptr, ptr %7, align 8, !tbaa !58
  %73 = getelementptr inbounds nuw %struct.global_State, ptr %72, i32 0, i32 2
  %74 = getelementptr inbounds nuw %struct.GCState, ptr %73, i32 0, i32 0
  %75 = load i64, ptr %74, align 8, !tbaa !43
  %76 = load i64, ptr %9, align 8, !tbaa !38
  %77 = sub i64 %75, %76
  br label %79

78:                                               ; preds = %61
  br label %79

79:                                               ; preds = %78, %71
  %80 = phi i64 [ %77, %71 ], [ 0, %78 ]
  %81 = load ptr, ptr %7, align 8, !tbaa !58
  %82 = getelementptr inbounds nuw %struct.global_State, ptr %81, i32 0, i32 2
  %83 = getelementptr inbounds nuw %struct.GCState, ptr %82, i32 0, i32 1
  store i64 %80, ptr %83, align 8, !tbaa !53
  br label %84

84:                                               ; preds = %99, %79
  %85 = load ptr, ptr %7, align 8, !tbaa !58
  %86 = getelementptr inbounds nuw %struct.global_State, ptr %85, i32 0, i32 2
  %87 = getelementptr inbounds nuw %struct.GCState, ptr %86, i32 0, i32 0
  %88 = load i64, ptr %87, align 8, !tbaa !43
  %89 = load ptr, ptr %7, align 8, !tbaa !58
  %90 = getelementptr inbounds nuw %struct.global_State, ptr %89, i32 0, i32 2
  %91 = getelementptr inbounds nuw %struct.GCState, ptr %90, i32 0, i32 1
  %92 = load i64, ptr %91, align 8, !tbaa !53
  %93 = icmp uge i64 %88, %92
  br i1 %93, label %94, label %100

94:                                               ; preds = %84
  %95 = load ptr, ptr %4, align 8, !tbaa !4
  %96 = call i32 @lj_gc_step(ptr noundef %95)
  %97 = icmp sgt i32 %96, 0
  br i1 %97, label %98, label %99

98:                                               ; preds = %94
  store i32 1, ptr %8, align 4, !tbaa !16
  br label %100

99:                                               ; preds = %94
  br label %84, !llvm.loop !88

100:                                              ; preds = %98, %84
  call void @llvm.lifetime.end.p0(i64 8, ptr %9) #9
  br label %127

101:                                              ; preds = %3
  %102 = load ptr, ptr %7, align 8, !tbaa !58
  %103 = getelementptr inbounds nuw %struct.global_State, ptr %102, i32 0, i32 2
  %104 = getelementptr inbounds nuw %struct.GCState, ptr %103, i32 0, i32 16
  %105 = load i32, ptr %104, align 4, !tbaa !87
  store i32 %105, ptr %8, align 4, !tbaa !16
  %106 = load i32, ptr %6, align 4, !tbaa !16
  %107 = load ptr, ptr %7, align 8, !tbaa !58
  %108 = getelementptr inbounds nuw %struct.global_State, ptr %107, i32 0, i32 2
  %109 = getelementptr inbounds nuw %struct.GCState, ptr %108, i32 0, i32 16
  store i32 %106, ptr %109, align 4, !tbaa !87
  br label %127

110:                                              ; preds = %3
  %111 = load ptr, ptr %7, align 8, !tbaa !58
  %112 = getelementptr inbounds nuw %struct.global_State, ptr %111, i32 0, i32 2
  %113 = getelementptr inbounds nuw %struct.GCState, ptr %112, i32 0, i32 15
  %114 = load i32, ptr %113, align 8, !tbaa !89
  store i32 %114, ptr %8, align 4, !tbaa !16
  %115 = load i32, ptr %6, align 4, !tbaa !16
  %116 = load ptr, ptr %7, align 8, !tbaa !58
  %117 = getelementptr inbounds nuw %struct.global_State, ptr %116, i32 0, i32 2
  %118 = getelementptr inbounds nuw %struct.GCState, ptr %117, i32 0, i32 15
  store i32 %115, ptr %118, align 8, !tbaa !89
  br label %127

119:                                              ; preds = %3
  %120 = load ptr, ptr %7, align 8, !tbaa !58
  %121 = getelementptr inbounds nuw %struct.global_State, ptr %120, i32 0, i32 2
  %122 = getelementptr inbounds nuw %struct.GCState, ptr %121, i32 0, i32 1
  %123 = load i64, ptr %122, align 8, !tbaa !53
  %124 = icmp ne i64 %123, 140737488355328
  %125 = zext i1 %124 to i32
  store i32 %125, ptr %8, align 4, !tbaa !16
  br label %127

126:                                              ; preds = %3
  store i32 -1, ptr %8, align 4, !tbaa !16
  br label %127

127:                                              ; preds = %126, %119, %110, %101, %100, %54, %47, %45, %40, %16
  %128 = load i32, ptr %8, align 4, !tbaa !16
  call void @llvm.lifetime.end.p0(i64 4, ptr %8) #9
  call void @llvm.lifetime.end.p0(i64 8, ptr %7) #9
  ret i32 %128
}