; Function Attrs: nounwind uwtable
define dso_local i32 @lua_gc(ptr noundef %0, i32 noundef %1, i32 noundef %2) local_unnamed_addr #1 {
  %4 = getelementptr inbounds nuw i8, ptr %0, i64 16
  %5 = load i64, ptr %4, align 8, !tbaa !21
  %6 = inttoptr i64 %5 to ptr
  switch i32 %1, label %.loopexit [
    i32 0, label %7
    i32 1, label %9
    i32 2, label %22
    i32 3, label %23
    i32 4, label %28
    i32 5, label %33
    i32 6, label %45
    i32 7, label %48
    i32 9, label %51
  ]

7:                                                ; preds = %3
  %8 = getelementptr inbounds nuw i8, ptr %6, i64 24
  store i64 140737488355328, ptr %8, align 8, !tbaa !39
  br label %.loopexit

9:                                                ; preds = %3
  %10 = icmp eq i32 %2, -1
  %11 = getelementptr inbounds nuw i8, ptr %6, i64 16
  %12 = load i64, ptr %11, align 8, !tbaa !29
  br i1 %10, label %13, label %19

13:                                               ; preds = %9
  %14 = udiv i64 %12, 100
  %15 = getelementptr inbounds nuw i8, ptr %6, i64 108
  %16 = load i32, ptr %15, align 4, !tbaa !65
  %17 = zext i32 %16 to i64
  %18 = mul i64 %14, %17
  br label %19

19:                                               ; preds = %9, %13
  %20 = phi i64 [ %18, %13 ], [ %12, %9 ]
  %21 = getelementptr inbounds nuw i8, ptr %6, i64 24
  store i64 %20, ptr %21, align 8, !tbaa !39
  br label %.loopexit

22:                                               ; preds = %3
  tail call void @lj_gc_fullgc(ptr noundef nonnull %0) #13
  br label %.loopexit

23:                                               ; preds = %3
  %24 = getelementptr inbounds nuw i8, ptr %6, i64 16
  %25 = load i64, ptr %24, align 8, !tbaa !29
  %26 = lshr i64 %25, 10
  %27 = trunc i64 %26 to i32
  br label %.loopexit

28:                                               ; preds = %3
  %29 = getelementptr inbounds nuw i8, ptr %6, i64 16
  %30 = load i64, ptr %29, align 8, !tbaa !29
  %31 = trunc i64 %30 to i32
  %32 = and i32 %31, 1023
  br label %.loopexit

33:                                               ; preds = %3
  %34 = sext i32 %2 to i64
  %35 = shl nsw i64 %34, 10
  %36 = getelementptr inbounds nuw i8, ptr %6, i64 16
  %37 = load i64, ptr %36, align 8, !tbaa !29
  %spec.select = tail call i64 @llvm.usub.sat.i64(i64 %37, i64 %35)
  %38 = getelementptr inbounds nuw i8, ptr %6, i64 24
  store i64 %spec.select, ptr %38, align 8, !tbaa !39
  br label %39

39:                                               ; preds = %42, %33
  %40 = load i64, ptr %36, align 8, !tbaa !29
  %41 = load i64, ptr %38, align 8, !tbaa !39
  %.not29 = icmp ult i64 %40, %41
  br i1 %.not29, label %.loopexit, label %42

42:                                               ; preds = %39
  %43 = tail call i32 @lj_gc_step(ptr noundef %0) #13
  %44 = icmp sgt i32 %43, 0
  br i1 %44, label %.loopexit, label %39, !llvm.loop !66

45:                                               ; preds = %3
  %46 = getelementptr inbounds nuw i8, ptr %6, i64 108
  %47 = load i32, ptr %46, align 4, !tbaa !65
  store i32 %2, ptr %46, align 4, !tbaa !65
  br label %.loopexit

48:                                               ; preds = %3
  %49 = getelementptr inbounds nuw i8, ptr %6, i64 104
  %50 = load i32, ptr %49, align 8, !tbaa !67
  store i32 %2, ptr %49, align 8, !tbaa !67
  br label %.loopexit

51:                                               ; preds = %3
  %52 = getelementptr inbounds nuw i8, ptr %6, i64 24
  %53 = load i64, ptr %52, align 8, !tbaa !39
  %54 = icmp ne i64 %53, 140737488355328
  %55 = zext i1 %54 to i32
  br label %.loopexit

.loopexit:                                        ; preds = %39, %42, %3, %51, %48, %45, %28, %23, %22, %19, %7
  %.0 = phi i32 [ %55, %51 ], [ %50, %48 ], [ %47, %45 ], [ %32, %28 ], [ %27, %23 ], [ 0, %22 ], [ 0, %19 ], [ 0, %7 ], [ -1, %3 ], [ 1, %42 ], [ 0, %39 ]
  ret i32 %.0
}